target datalayout = "e-m:e-p270:32:32-p271:32:32-p272:64:64-i64:64-i128:128-f80:128-n8:16:32:64-S128"
target triple = "x86_64-pc-linux-gnu"

%struct._packet_info = type { ptr, ptr, i32, i32, %struct.nstime_t, %struct.nstime_t, %struct.nstime_t, i8, ptr, ptr, ptr, ptr, %struct._address, %struct._address, %struct._address, %struct._address, %struct._address, %struct._address, i32, ptr, i8, [3 x i8], %struct.anon, i32, i32, i32, i32, ptr, i8, ptr, ptr, i16, i16, i32, i32, i16, i32, i32, ptr, ptr, ptr, i8, i8, i16, i16, i16, i32, i16, i16, ptr, ptr, ptr, ptr, ptr, i32, i32 }
%struct.nstime_t = type { i64, i32 }
%struct._address = type { i32, i32, ptr, ptr }
%struct.anon = type { i8, [3 x i8] }

@hf_wisun_cmd_subid = internal global i32 0, align 4
@hf_wisun_cmd_mdr_phy_mode_id = internal global i32 0, align 4
@hf_wisun_cmd_mdr_phy_type = internal global i32 0, align 4
@hf_wisun_cmd_mdr_phy_mode_fsk = internal global i32 0, align 4
@hf_wisun_cmd_mdr_phy_mode_ofdm = internal global i32 0, align 4
@ett_wisun_phy_mode_id = internal global i32 0, align 4
@.str.379 = private unnamed_addr constant [7 x i8] c"Wi-SUN\00", align 1
@wisun_cmd_vals = internal constant [2 x { i32, [4 x i8], ptr }] [{ i32, [4 x i8], ptr } { i32 3, [4 x i8] zeroinitializer, ptr @.str.522 }, { i32, [4 x i8], ptr } zeroinitializer], align 16
@.str.552 = private unnamed_addr constant [27 x i8] c"Unknown Wi-SUN MAC Command\00", align 1

; Function Attrs: null_pointer_is_valid sspstrong uwtable
define internal void @wisun_add_phy_mode_id(ptr noundef %0, ptr noundef %1, i32 noundef %2, i32 noundef %3, ptr noundef %4, ptr noundef %5, ptr noundef %6) #0 {
  %8 = alloca ptr, align 8
  %9 = alloca ptr, align 8
  %10 = alloca i32, align 4
  %11 = alloca i32, align 4
  %12 = alloca ptr, align 8
  %13 = alloca ptr, align 8
  %14 = alloca ptr, align 8
  %15 = alloca i8, align 1
  %16 = alloca [3 x ptr], align 16
  %17 = alloca [3 x ptr], align 16
  store ptr %0, ptr %8, align 8
  store ptr %1, ptr %9, align 8
  store i32 %2, ptr %10, align 4
  store i32 %3, ptr %11, align 4
  store ptr %4, ptr %12, align 8
  store ptr %5, ptr %13, align 8
  store ptr %6, ptr %14, align 8
  call void @llvm.lifetime.start.p0(i64 1, ptr %15) #7
  %18 = load ptr, ptr %8, align 8
  %19 = load i32, ptr %10, align 4
  %20 = call zeroext i8 @tvb_get_uint8(ptr noundef %18, i32 noundef %19)
  %21 = zext i8 %20 to i32
  %22 = and i32 %21, 240
  %23 = ashr i32 %22, 4
  %24 = trunc i32 %23 to i8
  store i8 %24, ptr %15, align 1
  call void @llvm.lifetime.start.p0(i64 24, ptr %16) #7
  %25 = load ptr, ptr %12, align 8
  store ptr %25, ptr %16, align 8
  %26 = getelementptr inbounds ptr, ptr %16, i64 1
  %27 = load ptr, ptr %13, align 8
  store ptr %27, ptr %26, align 8
  %28 = getelementptr inbounds ptr, ptr %16, i64 2
  store ptr null, ptr %28, align 8
  call void @llvm.lifetime.start.p0(i64 24, ptr %17) #7
  %29 = load ptr, ptr %12, align 8
  store ptr %29, ptr %17, align 8
  %30 = getelementptr inbounds ptr, ptr %17, i64 1
  %31 = load ptr, ptr %14, align 8
  store ptr %31, ptr %30, align 8
  %32 = getelementptr inbounds ptr, ptr %17, i64 2
  store ptr null, ptr %32, align 8
  %33 = load i8, ptr %15, align 1
  %34 = zext i8 %33 to i32
  %35 = icmp slt i32 %34, 2
  br i1 %35, label %36, label %44

36:                                               ; preds = %7
  %37 = load ptr, ptr %9, align 8
  %38 = load ptr, ptr %8, align 8
  %39 = load i32, ptr %10, align 4
  %40 = load i32, ptr %11, align 4
  %41 = load i32, ptr @ett_wisun_phy_mode_id, align 4
  %42 = getelementptr inbounds [3 x ptr], ptr %16, i64 0, i64 0
  %43 = call ptr @proto_tree_add_bitmask(ptr noundef %37, ptr noundef %38, i32 noundef %39, i32 noundef %40, i32 noundef %41, ptr noundef %42, i32 noundef 0)
  br label %52

44:                                               ; preds = %7
  %45 = load ptr, ptr %9, align 8
  %46 = load ptr, ptr %8, align 8
  %47 = load i32, ptr %10, align 4
  %48 = load i32, ptr %11, align 4
  %49 = load i32, ptr @ett_wisun_phy_mode_id, align 4
  %50 = getelementptr inbounds [3 x ptr], ptr %17, i64 0, i64 0
  %51 = call ptr @proto_tree_add_bitmask(ptr noundef %45, ptr noundef %46, i32 noundef %47, i32 noundef %48, i32 noundef %49, ptr noundef %50, i32 noundef 0)
  br label %52

52:                                               ; preds = %44, %36
  call void @llvm.lifetime.end.p0(i64 24, ptr %17) #7
  call void @llvm.lifetime.end.p0(i64 24, ptr %16) #7
  call void @llvm.lifetime.end.p0(i64 1, ptr %15) #7
  ret void
}

; Function Attrs: null_pointer_is_valid sspstrong uwtable
define internal i32 @dissect_wisun_cmd(ptr noundef %0, ptr noundef %1, ptr noundef %2, ptr noundef %3) #0 {
  %5 = alloca ptr, align 8
  %6 = alloca ptr, align 8
  %7 = alloca ptr, align 8
  %8 = alloca ptr, align 8
  %9 = alloca i32, align 4
  %10 = alloca i8, align 1
  store ptr %0, ptr %5, align 8
  store ptr %1, ptr %6, align 8
  store ptr %2, ptr %7, align 8
  store ptr %3, ptr %8, align 8
  call void @llvm.lifetime.start.p0(i64 4, ptr %9) #7
  store i32 0, ptr %9, align 4
  call void @llvm.lifetime.start.p0(i64 1, ptr %10) #7
  %11 = load ptr, ptr %5, align 8
  %12 = load i32, ptr %9, align 4
  %13 = call zeroext i8 @tvb_get_uint8(ptr noundef %11, i32 noundef %12)
  store i8 %13, ptr %10, align 1
  %14 = load ptr, ptr %6, align 8
  %15 = getelementptr inbounds nuw %struct._packet_info, ptr %14, i32 0, i32 1
  %16 = load ptr, ptr %15, align 8
  call void @col_set_str(ptr noundef %16, i32 noundef 35, ptr noundef @.str.379)
  %17 = load ptr, ptr %6, align 8
  %18 = getelementptr inbounds nuw %struct._packet_info, ptr %17, i32 0, i32 1
  %19 = load ptr, ptr %18, align 8
  %20 = load i8, ptr %10, align 1
  %21 = zext i8 %20 to i32
  %22 = call ptr @val_to_str_const(i32 noundef %21, ptr noundef @wisun_cmd_vals, ptr noundef @.str.552)
  call void @col_set_str(ptr noundef %19, i32 noundef 25, ptr noundef %22)
  %23 = load ptr, ptr %7, align 8
  %24 = load i32, ptr @hf_wisun_cmd_subid, align 4
  %25 = load ptr, ptr %5, align 8
  %26 = load i32, ptr %9, align 4
  %27 = call ptr @proto_tree_add_item(ptr noundef %23, i32 noundef %24, ptr noundef %25, i32 noundef %26, i32 noundef 1, i32 noundef -2147483648)
  %28 = load i32, ptr %9, align 4
  %29 = add i32 %28, 1
  store i32 %29, ptr %9, align 4
  %30 = load i8, ptr %10, align 1
  %31 = zext i8 %30 to i32
  switch i32 %31, label %37 [
    i32 3, label %32
  ]

32:                                               ; preds = %4
  %33 = load ptr, ptr %5, align 8
  %34 = load ptr, ptr %7, align 8
  %35 = load i32, ptr %9, align 4
  %36 = load i32, ptr @hf_wisun_cmd_mdr_phy_mode_id, align 4
  call void @wisun_add_phy_mode_id(ptr noundef %33, ptr noundef %34, i32 noundef %35, i32 noundef %36, ptr noundef @hf_wisun_cmd_mdr_phy_type, ptr noundef @hf_wisun_cmd_mdr_phy_mode_fsk, ptr noundef @hf_wisun_cmd_mdr_phy_mode_ofdm)
  br label %44

37:                                               ; preds = %4
  %38 = load ptr, ptr %5, align 8
  %39 = load i32, ptr %9, align 4
  %40 = call ptr @tvb_new_subset_remaining(ptr noundef %38, i32 noundef %39)
  %41 = load ptr, ptr %6, align 8
  %42 = load ptr, ptr %7, align 8
  %43 = call i32 @call_data_dissector(ptr noundef %40, ptr noundef %41, ptr noundef %42)
  br label %44

44:                                               ; preds = %37, %32
  %45 = load i32, ptr %9, align 4
  call void @llvm.lifetime.end.p0(i64 1, ptr %10) #7
  call void @llvm.lifetime.end.p0(i64 4, ptr %9) #7
  ret i32 %45
}