; Function Attrs: null_pointer_is_valid sspstrong uwtable
define internal noundef i32 @dissect_wisun_cmd(ptr noundef %0, ptr noundef %1, ptr noundef %2, ptr readnone captures(none) %3) #0 {
  %5 = alloca [3 x ptr], align 16
  %6 = alloca [3 x ptr], align 16
  %7 = tail call zeroext i8 @tvb_get_uint8(ptr noundef %0, i32 noundef 0)
  %8 = getelementptr inbounds nuw i8, ptr %1, i64 8
  %9 = load ptr, ptr %8, align 8
  tail call void @col_set_str(ptr noundef %9, i32 noundef 35, ptr noundef nonnull @.str.379)
  %10 = load ptr, ptr %8, align 8
  %11 = zext i8 %7 to i32
  %12 = tail call ptr @val_to_str_const(i32 noundef %11, ptr noundef nonnull @wisun_cmd_vals, ptr noundef nonnull @.str.552)
  tail call void @col_set_str(ptr noundef %10, i32 noundef 25, ptr noundef %12)
  %13 = load i32, ptr @hf_wisun_cmd_subid, align 4
  %14 = tail call ptr @proto_tree_add_item(ptr noundef %2, i32 noundef %13, ptr noundef %0, i32 noundef 0, i32 noundef 1, i32 noundef -2147483648)
  %cond = icmp eq i8 %7, 3
  br i1 %cond, label %15, label %25

15:                                               ; preds = %4
  %16 = load i32, ptr @hf_wisun_cmd_mdr_phy_mode_id, align 4
  %17 = tail call zeroext i8 @tvb_get_uint8(ptr noundef %0, i32 noundef 1)
  call void @llvm.lifetime.start.p0(i64 24, ptr nonnull %5) #5
  store ptr @hf_wisun_cmd_mdr_phy_type, ptr %5, align 16
  %18 = getelementptr inbounds nuw i8, ptr %5, i64 8
  store ptr @hf_wisun_cmd_mdr_phy_mode_fsk, ptr %18, align 8
  %19 = getelementptr inbounds nuw i8, ptr %5, i64 16
  store ptr null, ptr %19, align 16
  call void @llvm.lifetime.start.p0(i64 24, ptr nonnull %6) #5
  store ptr @hf_wisun_cmd_mdr_phy_type, ptr %6, align 16
  %20 = getelementptr inbounds nuw i8, ptr %6, i64 8
  store ptr @hf_wisun_cmd_mdr_phy_mode_ofdm, ptr %20, align 8
  %21 = getelementptr inbounds nuw i8, ptr %6, i64 16
  store ptr null, ptr %21, align 16
  %22 = icmp ult i8 %17, 32
  %23 = load i32, ptr @ett_wisun_phy_mode_id, align 4
  %..i = select i1 %22, ptr %5, ptr %6
  %24 = call ptr @proto_tree_add_bitmask(ptr noundef %2, ptr noundef %0, i32 noundef 1, i32 noundef %16, i32 noundef %23, ptr noundef nonnull %..i, i32 noundef 0)
  call void @llvm.lifetime.end.p0(i64 24, ptr nonnull %6) #5
  call void @llvm.lifetime.end.p0(i64 24, ptr nonnull %5) #5
  br label %28

25:                                               ; preds = %4
  %26 = tail call ptr @tvb_new_subset_remaining(ptr noundef %0, i32 noundef 1)
  %27 = tail call i32 @call_data_dissector(ptr noundef %26, ptr noundef %1, ptr noundef %2)
  br label %28

28:                                               ; preds = %25, %15
  ret i32 1
}